target datalayout = "e-m:e-p270:32:32-p271:32:32-p272:64:64-i64:64-i128:128-f80:128-n8:16:32:64-S128"
target triple = "x86_64-pc-linux-gnu"

%struct.LodePNGDecompressSettings = type { i32, i32, i64, ptr, ptr, ptr }
%struct.LodePNGInfo = type { i32, i32, i32, %struct.LodePNGColorMode, i32, i32, i32, i32, i64, ptr, ptr, i64, ptr, ptr, ptr, ptr, i32, ptr, i32, i32, %struct.LodePNGTime, i32, i32, i32, i32, i32, i32, i32, i32, i32, i32, i32, i32, i32, i32, i32, i32, i32, i32, ptr, ptr, i32, i32, i32, i32, i32, i32, i32, i32, i32, i32, i32, i32, i32, i32, i32, i32, i32, i32, i32, i32, i32, i32, i32, i32, i32, [3 x ptr], [3 x i64] }
%struct.LodePNGColorMode = type { i32, i32, ptr, i64, i32, i32, i32, i32 }
%struct.LodePNGTime = type { i32, i32, i32, i32, i32, i32 }
%struct.LodePNGState = type { %struct.LodePNGDecoderSettings, %struct.LodePNGEncoderSettings, %struct.LodePNGColorMode, %struct.LodePNGInfo, i32 }
%struct.LodePNGDecoderSettings = type { %struct.LodePNGDecompressSettings, i32, i32, i32, i32, i32, i32, i64, i64 }
%struct.LodePNGEncoderSettings = type { %struct.LodePNGCompressSettings, i32, i32, i32, ptr, i32, i32, i32 }
%struct.LodePNGCompressSettings = type { i32, i32, i32, i32, i32, i32, ptr, ptr, ptr }

; Function Attrs: mustprogress uwtable
define noundef i32 @_ZN7lodepng13convertToSrgbEPhPKhjjPK12LodePNGState(ptr noundef %0, ptr noundef %1, i32 noundef %2, i32 noundef %3, ptr noundef %4) #0 {
  %6 = alloca ptr, align 8
  %7 = alloca ptr, align 8
  %8 = alloca i32, align 4
  %9 = alloca i32, align 4
  %10 = alloca ptr, align 8
  %11 = alloca %struct.LodePNGState, align 8
  store ptr %0, ptr %6, align 8, !tbaa !13
  store ptr %1, ptr %7, align 8, !tbaa !13
  store i32 %2, ptr %8, align 4, !tbaa !9
  store i32 %3, ptr %9, align 4, !tbaa !9
  store ptr %4, ptr %10, align 8, !tbaa !88
  call void @llvm.lifetime.start.p0(i64 640, ptr %11) #19
  call void @_Z18lodepng_state_initP12LodePNGState(ptr noundef %11)
  %12 = getelementptr inbounds nuw %struct.LodePNGState, ptr %11, i32 0, i32 2
  %13 = load ptr, ptr %10, align 8, !tbaa !88
  %14 = getelementptr inbounds nuw %struct.LodePNGState, ptr %13, i32 0, i32 2
  %15 = call noundef i32 @_Z23lodepng_color_mode_copyP16LodePNGColorModePKS_(ptr noundef %12, ptr noundef %14)
  %16 = load ptr, ptr %6, align 8, !tbaa !13
  %17 = load ptr, ptr %7, align 8, !tbaa !13
  %18 = load i32, ptr %8, align 4, !tbaa !9
  %19 = load i32, ptr %9, align 4, !tbaa !9
  %20 = load ptr, ptr %10, align 8, !tbaa !88
  %21 = call noundef i32 @_ZN7lodepng15convertRGBModelEPhPKhjjPK12LodePNGStateS5_j(ptr noundef %16, ptr noundef %17, i32 noundef %18, i32 noundef %19, ptr noundef %11, ptr noundef %20, i32 noundef 1)
  call void @llvm.lifetime.end.p0(i64 640, ptr %11) #19
  ret i32 %21
}